target datalayout = "e-m:e-p270:32:32-p271:32:32-p272:64:64-i64:64-i128:128-f80:128-n8:16:32:64-S128"
target triple = "x86_64-pc-linux-gnu"

%struct.string_list = type { ptr, i64, i64, i8, ptr }
%struct.string_list_item = type { ptr, ptr }
%struct.ref_states = type { ptr, %struct.string_list, %struct.string_list, %struct.string_list, %struct.string_list, %struct.string_list, %struct.string_list, i32 }
%struct.show_info = type { %struct.string_list, %struct.ref_states, i32, i32, i32 }

; Function Attrs: nounwind uwtable
define internal i32 @add_remote_to_show_info(ptr noundef %0, ptr noundef %1) #0 {
  %3 = alloca ptr, align 8
  %4 = alloca ptr, align 8
  %5 = alloca ptr, align 8
  %6 = alloca i32, align 4
  store ptr %0, ptr %3, align 8, !tbaa !62
  store ptr %1, ptr %4, align 8, !tbaa !15
  call void @llvm.lifetime.start.p0(i64 8, ptr %5) #11
  %7 = load ptr, ptr %4, align 8, !tbaa !15
  store ptr %7, ptr %5, align 8, !tbaa !203
  call void @llvm.lifetime.start.p0(i64 4, ptr %6) #11
  %8 = load ptr, ptr %3, align 8, !tbaa !62
  %9 = getelementptr inbounds nuw %struct.string_list_item, ptr %8, i32 0, i32 0
  %10 = load ptr, ptr %9, align 8, !tbaa !38
  %11 = call i64 @strlen(ptr noundef %10) #14
  %12 = trunc i64 %11 to i32
  store i32 %12, ptr %6, align 4, !tbaa !4
  %13 = load i32, ptr %6, align 4, !tbaa !4
  %14 = load ptr, ptr %5, align 8, !tbaa !203
  %15 = getelementptr inbounds nuw %struct.show_info, ptr %14, i32 0, i32 2
  %16 = load i32, ptr %15, align 8, !tbaa !113
  %17 = icmp sgt i32 %13, %16
  br i1 %17, label %18, label %22

18:                                               ; preds = %2
  %19 = load i32, ptr %6, align 4, !tbaa !4
  %20 = load ptr, ptr %5, align 8, !tbaa !203
  %21 = getelementptr inbounds nuw %struct.show_info, ptr %20, i32 0, i32 2
  store i32 %19, ptr %21, align 8, !tbaa !113
  br label %22

22:                                               ; preds = %18, %2
  %23 = load ptr, ptr %5, align 8, !tbaa !203
  %24 = getelementptr inbounds nuw %struct.show_info, ptr %23, i32 0, i32 0
  %25 = load ptr, ptr %3, align 8, !tbaa !62
  %26 = getelementptr inbounds nuw %struct.string_list_item, ptr %25, i32 0, i32 0
  %27 = load ptr, ptr %26, align 8, !tbaa !38
  %28 = call ptr @string_list_insert(ptr noundef %24, ptr noundef %27)
  call void @llvm.lifetime.end.p0(i64 4, ptr %6) #11
  call void @llvm.lifetime.end.p0(i64 8, ptr %5) #11
  ret i32 0
}