; Function Attrs: nounwind uwtable
define internal noundef i32 @add_remote_to_show_info(ptr noundef readonly captures(none) %0, ptr noundef %1) #0 {
  %3 = load ptr, ptr %0, align 8, !tbaa !34
  %4 = tail call i64 @strlen(ptr noundef nonnull dereferenceable(1) %3) #21
  %5 = trunc i64 %4 to i32
  %6 = getelementptr inbounds nuw i8, ptr %1, i64 296
  %7 = load i32, ptr %6, align 8, !tbaa !112
  %8 = icmp slt i32 %7, %5
  br i1 %8, label %9, label %10

9:                                                ; preds = %2
  store i32 %5, ptr %6, align 8, !tbaa !112
  br label %10

10:                                               ; preds = %9, %2
  %11 = tail call ptr @string_list_insert(ptr noundef nonnull %1, ptr noundef nonnull %3) #19
  ret i32 0
}